; Function Attrs: mustprogress nounwind uwtable
define hidden noundef i32 @_ZN11klassItable19compute_itable_sizeEP5ArrayIP13InstanceKlassE(ptr nocapture noundef readonly %0) local_unnamed_addr #1 align 2 {
  %2 = alloca %class.CountInterfacesClosure, align 8
  store ptr getelementptr inbounds inrange(-16, 8) (i8, ptr @_ZTV22CountInterfacesClosure, i64 16), ptr %2, align 8
  %3 = getelementptr inbounds i8, ptr %2, i64 8
  store i32 0, ptr %3, align 8
  %4 = getelementptr inbounds i8, ptr %2, i64 12
  store i32 0, ptr %4, align 4
  %5 = load i32, ptr %0, align 8
  %6 = icmp sgt i32 %5, 0
  br i1 %6, label %.lr.ph.i, label %_ZL20visit_all_interfacesP5ArrayIP13InstanceKlassEP23InterfaceVisiterClosure.exit

.lr.ph.i:                                         ; preds = %1
  %7 = getelementptr inbounds i8, ptr %0, i64 8
  br label %8

8:                                                ; preds = %37, %.lr.ph.i
  %indvars.iv27.i = phi i64 [ 0, %.lr.ph.i ], [ %indvars.iv.next28.i, %37 ]
  %9 = getelementptr inbounds ptr, ptr %7, i64 %indvars.iv27.i
  %10 = load ptr, ptr %9, align 8
  %11 = getelementptr inbounds i8, ptr %10, i64 400
  %12 = load ptr, ptr %11, align 8
  %13 = load i32, ptr %12, align 8
  %14 = icmp sgt i32 %13, 0
  br i1 %14, label %.preheader.i, label %.thread.i

.preheader.i:                                     ; preds = %8
  %15 = zext nneg i32 %13 to i64
  br label %16

16:                                               ; preds = %_Z35interface_method_needs_itable_indexP6Method.exit.thread.i, %.preheader.i
  %indvars.iv.i = phi i64 [ %15, %.preheader.i ], [ %indvars.iv.next.i, %_Z35interface_method_needs_itable_indexP6Method.exit.thread.i ]
  %.01724.i = phi i32 [ 0, %.preheader.i ], [ %26, %_Z35interface_method_needs_itable_indexP6Method.exit.thread.i ]
  %indvars.iv.next.i = add nsw i64 %indvars.iv.i, -1
  %17 = getelementptr ptr, ptr %12, i64 %indvars.iv.i
  %18 = load ptr, ptr %17, align 8
  %19 = getelementptr inbounds i8, ptr %18, i64 40
  %.sroa.0.0.copyload.i.i.i.i = load i32, ptr %19, align 8
  %20 = and i32 %.sroa.0.0.copyload.i.i.i.i, 8
  %.not.i.i = icmp eq i32 %20, 0
  br i1 %.not.i.i, label %21, label %_Z35interface_method_needs_itable_indexP6Method.exit.thread.i

21:                                               ; preds = %16
  %22 = call noundef zeroext i1 @_ZNK6Method14is_initializerEv(ptr noundef nonnull align 8 dereferenceable(88) %18) #14
  br i1 %22, label %_Z35interface_method_needs_itable_indexP6Method.exit.thread.i, label %_Z35interface_method_needs_itable_indexP6Method.exit.i

_Z35interface_method_needs_itable_indexP6Method.exit.i: ; preds = %21
  %.sroa.0.0.copyload.i.i4.i.i = load i32, ptr %19, align 8
  %.sroa.0.0.copyload.i.i4.i.fr.i = freeze i32 %.sroa.0.0.copyload.i.i4.i.i
  %23 = lshr i32 %.sroa.0.0.copyload.i.i4.i.fr.i, 1
  %24 = and i32 %23, 1
  %25 = xor i32 %24, 1
  %spec.select.i = add i32 %25, %.01724.i
  br label %_Z35interface_method_needs_itable_indexP6Method.exit.thread.i

_Z35interface_method_needs_itable_indexP6Method.exit.thread.i: ; preds = %_Z35interface_method_needs_itable_indexP6Method.exit.i, %21, %16
  %26 = phi i32 [ %.01724.i, %16 ], [ %.01724.i, %21 ], [ %spec.select.i, %_Z35interface_method_needs_itable_indexP6Method.exit.i ]
  %27 = icmp ugt i64 %indvars.iv.i, 1
  br i1 %27, label %16, label %28, !llvm.loop !37

28:                                               ; preds = %_Z35interface_method_needs_itable_indexP6Method.exit.thread.i
  %29 = icmp sgt i32 %26, 0
  br i1 %29, label %34, label %.thread.i

.thread.i:                                        ; preds = %28, %8
  %.222.i = phi i32 [ %26, %28 ], [ 0, %8 ]
  %30 = getelementptr inbounds i8, ptr %10, i64 424
  %31 = load ptr, ptr %30, align 8
  %32 = load i32, ptr %31, align 8
  %33 = icmp sgt i32 %32, 0
  br i1 %33, label %34, label %37

34:                                               ; preds = %.thread.i, %28
  %.223.i = phi i32 [ %.222.i, %.thread.i ], [ %26, %28 ]
  %35 = load ptr, ptr %2, align 8
  %36 = load ptr, ptr %35, align 8
  call void %36(ptr noundef nonnull align 8 dereferenceable(8) %2, ptr noundef nonnull %10, i32 noundef %.223.i) #14
  br label %37

37:                                               ; preds = %34, %.thread.i
  %indvars.iv.next28.i = add nuw nsw i64 %indvars.iv27.i, 1
  %38 = load i32, ptr %0, align 8
  %39 = sext i32 %38 to i64
  %40 = icmp slt i64 %indvars.iv.next28.i, %39
  br i1 %40, label %8, label %_ZL20visit_all_interfacesP5ArrayIP13InstanceKlassEP23InterfaceVisiterClosure.exit.loopexit, !llvm.loop !38

_ZL20visit_all_interfacesP5ArrayIP13InstanceKlassEP23InterfaceVisiterClosure.exit.loopexit: ; preds = %37
  %.pre = load i32, ptr %4, align 4
  %.pre1 = load i32, ptr %3, align 8
  %41 = shl i32 %.pre, 1
  %42 = add i32 %41, 2
  %43 = add nsw i32 %42, %.pre1
  br label %_ZL20visit_all_interfacesP5ArrayIP13InstanceKlassEP23InterfaceVisiterClosure.exit

_ZL20visit_all_interfacesP5ArrayIP13InstanceKlassEP23InterfaceVisiterClosure.exit: ; preds = %_ZL20visit_all_interfacesP5ArrayIP13InstanceKlassEP23InterfaceVisiterClosure.exit.loopexit, %1
  %44 = phi i32 [ %43, %_ZL20visit_all_interfacesP5ArrayIP13InstanceKlassEP23InterfaceVisiterClosure.exit.loopexit ], [ 2, %1 ]
  ret i32 %44
}